; ModuleID = '52/4694.c'
source_filename = "52/4694.c"
target datalayout = "e-m:e-p270:32:32-p271:32:32-p272:64:64-i64:64-f80:128-n8:16:32:64-S128"
target triple = "x86_64-pc-linux-gnu"

@.str = private unnamed_addr constant [5 x i8] c"%d%d\00", align 1
@.str.1 = private unnamed_addr constant [2 x i8] c"\0A\00", align 1
@.str.2 = private unnamed_addr constant [3 x i8] c"%d\00", align 1
@.str.3 = private unnamed_addr constant [4 x i8] c"%d \00", align 1

; Function Attrs: noinline nounwind uwtable
define dso_local void @main() #0 {
  %1 = alloca [100 x i32], align 16
  %2 = alloca i32, align 4
  %3 = alloca i32, align 4
  %4 = alloca i32, align 4
  %5 = alloca i32*, align 8
  %6 = getelementptr inbounds [100 x i32], [100 x i32]* %1, i64 0, i64 0
  store i32* %6, i32** %5, align 8
  %7 = call i32 (i8*, ...) @__isoc99_scanf(i8* getelementptr inbounds ([5 x i8], [5 x i8]* @.str, i64 0, i64 0), i32* %2, i32* %3)
  %8 = call i32 (i8*, ...) @printf(i8* getelementptr inbounds ([2 x i8], [2 x i8]* @.str.1, i64 0, i64 0))
  store i32 0, i32* %4, align 4
  br label %9

9:                                                ; preds = %16, %0
  %10 = load i32, i32* %4, align 4
  %11 = load i32, i32* %2, align 4
  %12 = icmp slt i32 %10, %11
  br i1 %12, label %13, label %21

13:                                               ; preds = %9
  %14 = load i32*, i32** %5, align 8
  %15 = call i32 (i8*, ...) @__isoc99_scanf(i8* getelementptr inbounds ([3 x i8], [3 x i8]* @.str.2, i64 0, i64 0), i32* %14)
  br label %16

16:                                               ; preds = %13
  %17 = load i32, i32* %4, align 4
  %18 = add nsw i32 %17, 1
  store i32 %18, i32* %4, align 4
  %19 = load i32*, i32** %5, align 8
  %20 = getelementptr inbounds i32, i32* %19, i32 1
  store i32* %20, i32** %5, align 8
  br label %9

21:                                               ; preds = %9
  %22 = getelementptr inbounds [100 x i32], [100 x i32]* %1, i64 0, i64 0
  store i32* %22, i32** %5, align 8
  %23 = load i32*, i32** %5, align 8
  %24 = load i32, i32* %2, align 4
  %25 = load i32, i32* %3, align 4
  call void @change(i32* %23, i32 %24, i32 %25)
  ret void
}

declare dso_local i32 @__isoc99_scanf(i8*, ...) #1

declare dso_local i32 @printf(i8*, ...) #1

; Function Attrs: noinline nounwind uwtable
define dso_local void @change(i32* %0, i32 %1, i32 %2) #0 {
  %4 = alloca i32*, align 8
  %5 = alloca i32, align 4
  %6 = alloca i32, align 4
  %7 = alloca i32*, align 8
  %8 = alloca i32*, align 8
  %9 = alloca [100 x i32], align 16
  store i32* %0, i32** %4, align 8
  store i32 %1, i32* %5, align 4
  store i32 %2, i32* %6, align 4
  %10 = getelementptr inbounds [100 x i32], [100 x i32]* %9, i64 0, i64 0
  store i32* %10, i32** %8, align 8
  %11 = load i32*, i32** %4, align 8
  store i32* %11, i32** %7, align 8
  %12 = getelementptr inbounds [100 x i32], [100 x i32]* %9, i64 0, i64 0
  store i32* %12, i32** %8, align 8
  %13 = load i32*, i32** %4, align 8
  store i32* %13, i32** %7, align 8
  br label %14

14:                                               ; preds = %51, %3
  %15 = load i32*, i32** %7, align 8
  %16 = load i32*, i32** %4, align 8
  %17 = load i32, i32* %5, align 4
  %18 = sext i32 %17 to i64
  %19 = getelementptr inbounds i32, i32* %16, i64 %18
  %20 = icmp ult i32* %15, %19
  br i1 %20, label %21, label %56

21:                                               ; preds = %14
  %22 = load i32*, i32** %7, align 8
  %23 = load i32*, i32** %4, align 8
  %24 = load i32, i32* %5, align 4
  %25 = sext i32 %24 to i64
  %26 = getelementptr inbounds i32, i32* %23, i64 %25
  %27 = load i32, i32* %6, align 4
  %28 = sext i32 %27 to i64
  %29 = sub i64 0, %28
  %30 = getelementptr inbounds i32, i32* %26, i64 %29
  %31 = icmp ult i32* %22, %30
  br i1 %31, label %32, label %39

32:                                               ; preds = %21
  %33 = load i32*, i32** %7, align 8
  %34 = load i32, i32* %33, align 4
  %35 = load i32*, i32** %8, align 8
  %36 = load i32, i32* %6, align 4
  %37 = sext i32 %36 to i64
  %38 = getelementptr inbounds i32, i32* %35, i64 %37
  store i32 %34, i32* %38, align 4
  br label %50

39:                                               ; preds = %21
  %40 = load i32*, i32** %7, align 8
  %41 = load i32, i32* %40, align 4
  %42 = load i32*, i32** %8, align 8
  %43 = load i32, i32* %5, align 4
  %44 = sext i32 %43 to i64
  %45 = sub i64 0, %44
  %46 = getelementptr inbounds i32, i32* %42, i64 %45
  %47 = load i32, i32* %6, align 4
  %48 = sext i32 %47 to i64
  %49 = getelementptr inbounds i32, i32* %46, i64 %48
  store i32 %41, i32* %49, align 4
  br label %50

50:                                               ; preds = %39, %32
  br label %51

51:                                               ; preds = %50
  %52 = load i32*, i32** %7, align 8
  %53 = getelementptr inbounds i32, i32* %52, i32 1
  store i32* %53, i32** %7, align 8
  %54 = load i32*, i32** %8, align 8
  %55 = getelementptr inbounds i32, i32* %54, i32 1
  store i32* %55, i32** %8, align 8
  br label %14

56:                                               ; preds = %14
  %57 = getelementptr inbounds [100 x i32], [100 x i32]* %9, i64 0, i64 0
  store i32* %57, i32** %8, align 8
  br label %58

58:                                               ; preds = %70, %56
  %59 = load i32*, i32** %8, align 8
  %60 = getelementptr inbounds [100 x i32], [100 x i32]* %9, i64 0, i64 0
  %61 = load i32, i32* %5, align 4
  %62 = sext i32 %61 to i64
  %63 = getelementptr inbounds i32, i32* %60, i64 %62
  %64 = getelementptr inbounds i32, i32* %63, i64 -1
  %65 = icmp ult i32* %59, %64
  br i1 %65, label %66, label %73

66:                                               ; preds = %58
  %67 = load i32*, i32** %8, align 8
  %68 = load i32, i32* %67, align 4
  %69 = call i32 (i8*, ...) @printf(i8* getelementptr inbounds ([4 x i8], [4 x i8]* @.str.3, i64 0, i64 0), i32 %68)
  br label %70

70:                                               ; preds = %66
  %71 = load i32*, i32** %8, align 8
  %72 = getelementptr inbounds i32, i32* %71, i32 1
  store i32* %72, i32** %8, align 8
  br label %58

73:                                               ; preds = %58
  %74 = getelementptr inbounds [100 x i32], [100 x i32]* %9, i64 0, i64 0
  %75 = load i32, i32* %5, align 4
  %76 = sext i32 %75 to i64
  %77 = getelementptr inbounds i32, i32* %74, i64 %76
  %78 = getelementptr inbounds i32, i32* %77, i64 -1
  %79 = load i32, i32* %78, align 4
  %80 = call i32 (i8*, ...) @printf(i8* getelementptr inbounds ([3 x i8], [3 x i8]* @.str.2, i64 0, i64 0), i32 %79)
  ret void
}


!llvm.module.flags = !{!0}
!llvm.ident = !{!1}

!0 = !{i32 1, !"wchar_size", i32 4}
!1 = !{!"clang version 10.0.0-4ubuntu1 "}
